; Function Attrs: mustprogress uwtable
define hidden void @_ZNK5logos5Match10printMatchEv(ptr noundef nonnull readonly align 8 captures(none) dereferenceable(56) %0) local_unnamed_addr #8 align 2 {
  %2 = tail call noundef nonnull align 8 dereferenceable(8) ptr @_ZSt16__ostream_insertIcSt11char_traitsIcEERSt13basic_ostreamIT_T0_ES6_PKS3_l(ptr noundef nonnull align 8 dereferenceable(8) @_ZSt4cout, ptr noundef nonnull @.str, i64 noundef 22)
  %3 = getelementptr inbounds nuw i8, ptr %0, i64 16
  %4 = load float, ptr %3, align 8, !tbaa !33
  %5 = fpext float %4 to double
  %6 = tail call noundef nonnull align 8 dereferenceable(8) ptr @_ZNSo9_M_insertIdEERSoT_(ptr noundef nonnull align 8 dereferenceable(8) @_ZSt4cout, double noundef %5)
  %7 = load ptr, ptr %6, align 8, !tbaa !41
  %8 = getelementptr i8, ptr %7, i64 -24
  %9 = load i64, ptr %8, align 8
  %10 = getelementptr inbounds i8, ptr %6, i64 %9
  %11 = getelementptr inbounds nuw i8, ptr %10, i64 240
  %12 = load ptr, ptr %11, align 8, !tbaa !43
  %.not.i.i.i = icmp eq ptr %12, null
  br i1 %.not.i.i.i, label %13, label %_ZSt13__check_facetISt5ctypeIcEERKT_PS3_.exit.i.i

13:                                               ; preds = %1
  tail call void @_ZSt16__throw_bad_castv() #14
  unreachable

_ZSt13__check_facetISt5ctypeIcEERKT_PS3_.exit.i.i: ; preds = %1
  %14 = getelementptr inbounds nuw i8, ptr %12, i64 56
  %15 = load i8, ptr %14, align 8, !tbaa !59
  %.not.i1.i.i = icmp eq i8 %15, 0
  br i1 %.not.i1.i.i, label %19, label %16

16:                                               ; preds = %_ZSt13__check_facetISt5ctypeIcEERKT_PS3_.exit.i.i
  %17 = getelementptr inbounds nuw i8, ptr %12, i64 67
  %18 = load i8, ptr %17, align 1, !tbaa !65
  br label %_ZSt4endlIcSt11char_traitsIcEERSt13basic_ostreamIT_T0_ES6_.exit

19:                                               ; preds = %_ZSt13__check_facetISt5ctypeIcEERKT_PS3_.exit.i.i
  tail call void @_ZNKSt5ctypeIcE13_M_widen_initEv(ptr noundef nonnull align 8 dereferenceable(570) %12)
  %20 = load ptr, ptr %12, align 8, !tbaa !41
  %21 = getelementptr inbounds nuw i8, ptr %20, i64 48
  %22 = load ptr, ptr %21, align 8
  %23 = tail call noundef signext i8 %22(ptr noundef nonnull align 8 dereferenceable(570) %12, i8 noundef signext 10)
  br label %_ZSt4endlIcSt11char_traitsIcEERSt13basic_ostreamIT_T0_ES6_.exit

_ZSt4endlIcSt11char_traitsIcEERSt13basic_ostreamIT_T0_ES6_.exit: ; preds = %16, %19
  %.0.i.i.i = phi i8 [ %18, %16 ], [ %23, %19 ]
  %24 = tail call noundef nonnull align 8 dereferenceable(8) ptr @_ZNSo3putEc(ptr noundef nonnull align 8 dereferenceable(8) %6, i8 noundef signext %.0.i.i.i)
  %25 = tail call noundef nonnull align 8 dereferenceable(8) ptr @_ZNSo5flushEv(ptr noundef nonnull align 8 dereferenceable(8) %24)
  %26 = tail call noundef nonnull align 8 dereferenceable(8) ptr @_ZSt16__ostream_insertIcSt11char_traitsIcEERSt13basic_ostreamIT_T0_ES6_PKS3_l(ptr noundef nonnull align 8 dereferenceable(8) @_ZSt4cout, ptr noundef nonnull @.str.1, i64 noundef 16)
  %27 = getelementptr inbounds nuw i8, ptr %0, i64 20
  %28 = load float, ptr %27, align 4, !tbaa !35
  %29 = fpext float %28 to double
  %30 = tail call noundef nonnull align 8 dereferenceable(8) ptr @_ZNSo9_M_insertIdEERSoT_(ptr noundef nonnull align 8 dereferenceable(8) @_ZSt4cout, double noundef %29)
  %31 = load ptr, ptr %30, align 8, !tbaa !41
  %32 = getelementptr i8, ptr %31, i64 -24
  %33 = load i64, ptr %32, align 8
  %34 = getelementptr inbounds i8, ptr %30, i64 %33
  %35 = getelementptr inbounds nuw i8, ptr %34, i64 240
  %36 = load ptr, ptr %35, align 8, !tbaa !43
  %.not.i.i.i1 = icmp eq ptr %36, null
  br i1 %.not.i.i.i1, label %37, label %_ZSt13__check_facetISt5ctypeIcEERKT_PS3_.exit.i.i2

37:                                               ; preds = %_ZSt4endlIcSt11char_traitsIcEERSt13basic_ostreamIT_T0_ES6_.exit
  tail call void @_ZSt16__throw_bad_castv() #14
  unreachable

_ZSt13__check_facetISt5ctypeIcEERKT_PS3_.exit.i.i2: ; preds = %_ZSt4endlIcSt11char_traitsIcEERSt13basic_ostreamIT_T0_ES6_.exit
  %38 = getelementptr inbounds nuw i8, ptr %36, i64 56
  %39 = load i8, ptr %38, align 8, !tbaa !59
  %.not.i1.i.i3 = icmp eq i8 %39, 0
  br i1 %.not.i1.i.i3, label %43, label %40

40:                                               ; preds = %_ZSt13__check_facetISt5ctypeIcEERKT_PS3_.exit.i.i2
  %41 = getelementptr inbounds nuw i8, ptr %36, i64 67
  %42 = load i8, ptr %41, align 1, !tbaa !65
  br label %_ZSt4endlIcSt11char_traitsIcEERSt13basic_ostreamIT_T0_ES6_.exit5

43:                                               ; preds = %_ZSt13__check_facetISt5ctypeIcEERKT_PS3_.exit.i.i2
  tail call void @_ZNKSt5ctypeIcE13_M_widen_initEv(ptr noundef nonnull align 8 dereferenceable(570) %36)
  %44 = load ptr, ptr %36, align 8, !tbaa !41
  %45 = getelementptr inbounds nuw i8, ptr %44, i64 48
  %46 = load ptr, ptr %45, align 8
  %47 = tail call noundef signext i8 %46(ptr noundef nonnull align 8 dereferenceable(570) %36, i8 noundef signext 10)
  br label %_ZSt4endlIcSt11char_traitsIcEERSt13basic_ostreamIT_T0_ES6_.exit5

_ZSt4endlIcSt11char_traitsIcEERSt13basic_ostreamIT_T0_ES6_.exit5: ; preds = %40, %43
  %.0.i.i.i4 = phi i8 [ %42, %40 ], [ %47, %43 ]
  %48 = tail call noundef nonnull align 8 dereferenceable(8) ptr @_ZNSo3putEc(ptr noundef nonnull align 8 dereferenceable(8) %30, i8 noundef signext %.0.i.i.i4)
  %49 = tail call noundef nonnull align 8 dereferenceable(8) ptr @_ZNSo5flushEv(ptr noundef nonnull align 8 dereferenceable(8) %48)
  %50 = tail call noundef nonnull align 8 dereferenceable(8) ptr @_ZSt16__ostream_insertIcSt11char_traitsIcEERSt13basic_ostreamIT_T0_ES6_PKS3_l(ptr noundef nonnull align 8 dereferenceable(8) @_ZSt4cout, ptr noundef nonnull @.str.2, i64 noundef 19)
  %51 = getelementptr inbounds nuw i8, ptr %0, i64 24
  %52 = load float, ptr %51, align 8, !tbaa !39
  %53 = fpext float %52 to double
  %54 = tail call noundef nonnull align 8 dereferenceable(8) ptr @_ZNSo9_M_insertIdEERSoT_(ptr noundef nonnull align 8 dereferenceable(8) @_ZSt4cout, double noundef %53)
  %55 = load ptr, ptr %54, align 8, !tbaa !41
  %56 = getelementptr i8, ptr %55, i64 -24
  %57 = load i64, ptr %56, align 8
  %58 = getelementptr inbounds i8, ptr %54, i64 %57
  %59 = getelementptr inbounds nuw i8, ptr %58, i64 240
  %60 = load ptr, ptr %59, align 8, !tbaa !43
  %.not.i.i.i6 = icmp eq ptr %60, null
  br i1 %.not.i.i.i6, label %61, label %_ZSt13__check_facetISt5ctypeIcEERKT_PS3_.exit.i.i7

61:                                               ; preds = %_ZSt4endlIcSt11char_traitsIcEERSt13basic_ostreamIT_T0_ES6_.exit5
  tail call void @_ZSt16__throw_bad_castv() #14
  unreachable

_ZSt13__check_facetISt5ctypeIcEERKT_PS3_.exit.i.i7: ; preds = %_ZSt4endlIcSt11char_traitsIcEERSt13basic_ostreamIT_T0_ES6_.exit5
  %62 = getelementptr inbounds nuw i8, ptr %60, i64 56
  %63 = load i8, ptr %62, align 8, !tbaa !59
  %.not.i1.i.i8 = icmp eq i8 %63, 0
  br i1 %.not.i1.i.i8, label %67, label %64

64:                                               ; preds = %_ZSt13__check_facetISt5ctypeIcEERKT_PS3_.exit.i.i7
  %65 = getelementptr inbounds nuw i8, ptr %60, i64 67
  %66 = load i8, ptr %65, align 1, !tbaa !65
  br label %_ZSt4endlIcSt11char_traitsIcEERSt13basic_ostreamIT_T0_ES6_.exit10

67:                                               ; preds = %_ZSt13__check_facetISt5ctypeIcEERKT_PS3_.exit.i.i7
  tail call void @_ZNKSt5ctypeIcE13_M_widen_initEv(ptr noundef nonnull align 8 dereferenceable(570) %60)
  %68 = load ptr, ptr %60, align 8, !tbaa !41
  %69 = getelementptr inbounds nuw i8, ptr %68, i64 48
  %70 = load ptr, ptr %69, align 8
  %71 = tail call noundef signext i8 %70(ptr noundef nonnull align 8 dereferenceable(570) %60, i8 noundef signext 10)
  br label %_ZSt4endlIcSt11char_traitsIcEERSt13basic_ostreamIT_T0_ES6_.exit10

_ZSt4endlIcSt11char_traitsIcEERSt13basic_ostreamIT_T0_ES6_.exit10: ; preds = %64, %67
  %.0.i.i.i9 = phi i8 [ %66, %64 ], [ %71, %67 ]
  %72 = tail call noundef nonnull align 8 dereferenceable(8) ptr @_ZNSo3putEc(ptr noundef nonnull align 8 dereferenceable(8) %54, i8 noundef signext %.0.i.i.i9)
  %73 = tail call noundef nonnull align 8 dereferenceable(8) ptr @_ZNSo5flushEv(ptr noundef nonnull align 8 dereferenceable(8) %72)
  %74 = tail call noundef nonnull align 8 dereferenceable(8) ptr @_ZSt16__ostream_insertIcSt11char_traitsIcEERSt13basic_ostreamIT_T0_ES6_PKS3_l(ptr noundef nonnull align 8 dereferenceable(8) @_ZSt4cout, ptr noundef nonnull @.str.3, i64 noundef 13)
  %75 = getelementptr inbounds nuw i8, ptr %0, i64 28
  %76 = load float, ptr %75, align 4, !tbaa !40
  %77 = fpext float %76 to double
  %78 = tail call noundef nonnull align 8 dereferenceable(8) ptr @_ZNSo9_M_insertIdEERSoT_(ptr noundef nonnull align 8 dereferenceable(8) @_ZSt4cout, double noundef %77)
  %79 = load ptr, ptr %78, align 8, !tbaa !41
  %80 = getelementptr i8, ptr %79, i64 -24
  %81 = load i64, ptr %80, align 8
  %82 = getelementptr inbounds i8, ptr %78, i64 %81
  %83 = getelementptr inbounds nuw i8, ptr %82, i64 240
  %84 = load ptr, ptr %83, align 8, !tbaa !43
  %.not.i.i.i11 = icmp eq ptr %84, null
  br i1 %.not.i.i.i11, label %85, label %_ZSt13__check_facetISt5ctypeIcEERKT_PS3_.exit.i.i12

85:                                               ; preds = %_ZSt4endlIcSt11char_traitsIcEERSt13basic_ostreamIT_T0_ES6_.exit10
  tail call void @_ZSt16__throw_bad_castv() #14
  unreachable

_ZSt13__check_facetISt5ctypeIcEERKT_PS3_.exit.i.i12: ; preds = %_ZSt4endlIcSt11char_traitsIcEERSt13basic_ostreamIT_T0_ES6_.exit10
  %86 = getelementptr inbounds nuw i8, ptr %84, i64 56
  %87 = load i8, ptr %86, align 8, !tbaa !59
  %.not.i1.i.i13 = icmp eq i8 %87, 0
  br i1 %.not.i1.i.i13, label %91, label %88

88:                                               ; preds = %_ZSt13__check_facetISt5ctypeIcEERKT_PS3_.exit.i.i12
  %89 = getelementptr inbounds nuw i8, ptr %84, i64 67
  %90 = load i8, ptr %89, align 1, !tbaa !65
  br label %_ZSt4endlIcSt11char_traitsIcEERSt13basic_ostreamIT_T0_ES6_.exit15

91:                                               ; preds = %_ZSt13__check_facetISt5ctypeIcEERKT_PS3_.exit.i.i12
  tail call void @_ZNKSt5ctypeIcE13_M_widen_initEv(ptr noundef nonnull align 8 dereferenceable(570) %84)
  %92 = load ptr, ptr %84, align 8, !tbaa !41
  %93 = getelementptr inbounds nuw i8, ptr %92, i64 48
  %94 = load ptr, ptr %93, align 8
  %95 = tail call noundef signext i8 %94(ptr noundef nonnull align 8 dereferenceable(570) %84, i8 noundef signext 10)
  br label %_ZSt4endlIcSt11char_traitsIcEERSt13basic_ostreamIT_T0_ES6_.exit15

_ZSt4endlIcSt11char_traitsIcEERSt13basic_ostreamIT_T0_ES6_.exit15: ; preds = %88, %91
  %.0.i.i.i14 = phi i8 [ %90, %88 ], [ %95, %91 ]
  %96 = tail call noundef nonnull align 8 dereferenceable(8) ptr @_ZNSo3putEc(ptr noundef nonnull align 8 dereferenceable(8) %78, i8 noundef signext %.0.i.i.i14)
  %97 = tail call noundef nonnull align 8 dereferenceable(8) ptr @_ZNSo5flushEv(ptr noundef nonnull align 8 dereferenceable(8) %96)
  %98 = tail call noundef nonnull align 8 dereferenceable(8) ptr @_ZSt16__ostream_insertIcSt11char_traitsIcEERSt13basic_ostreamIT_T0_ES6_PKS3_l(ptr noundef nonnull align 8 dereferenceable(8) @_ZSt4cout, ptr noundef nonnull @.str.4, i64 noundef 29)
  %99 = load ptr, ptr %0, align 8, !tbaa !3
  %100 = getelementptr inbounds nuw i8, ptr %99, i64 20
  %101 = load float, ptr %100, align 4, !tbaa !30
  %102 = fpext float %101 to double
  %103 = tail call noundef nonnull align 8 dereferenceable(8) ptr @_ZNSo9_M_insertIdEERSoT_(ptr noundef nonnull align 8 dereferenceable(8) @_ZSt4cout, double noundef %102)
  %104 = load ptr, ptr %103, align 8, !tbaa !41
  %105 = getelementptr i8, ptr %104, i64 -24
  %106 = load i64, ptr %105, align 8
  %107 = getelementptr inbounds i8, ptr %103, i64 %106
  %108 = getelementptr inbounds nuw i8, ptr %107, i64 240
  %109 = load ptr, ptr %108, align 8, !tbaa !43
  %.not.i.i.i16 = icmp eq ptr %109, null
  br i1 %.not.i.i.i16, label %110, label %_ZSt13__check_facetISt5ctypeIcEERKT_PS3_.exit.i.i17

110:                                              ; preds = %_ZSt4endlIcSt11char_traitsIcEERSt13basic_ostreamIT_T0_ES6_.exit15
  tail call void @_ZSt16__throw_bad_castv() #14
  unreachable

_ZSt13__check_facetISt5ctypeIcEERKT_PS3_.exit.i.i17: ; preds = %_ZSt4endlIcSt11char_traitsIcEERSt13basic_ostreamIT_T0_ES6_.exit15
  %111 = getelementptr inbounds nuw i8, ptr %109, i64 56
  %112 = load i8, ptr %111, align 8, !tbaa !59
  %.not.i1.i.i18 = icmp eq i8 %112, 0
  br i1 %.not.i1.i.i18, label %116, label %113

113:                                              ; preds = %_ZSt13__check_facetISt5ctypeIcEERKT_PS3_.exit.i.i17
  %114 = getelementptr inbounds nuw i8, ptr %109, i64 67
  %115 = load i8, ptr %114, align 1, !tbaa !65
  br label %_ZSt4endlIcSt11char_traitsIcEERSt13basic_ostreamIT_T0_ES6_.exit20

116:                                              ; preds = %_ZSt13__check_facetISt5ctypeIcEERKT_PS3_.exit.i.i17
  tail call void @_ZNKSt5ctypeIcE13_M_widen_initEv(ptr noundef nonnull align 8 dereferenceable(570) %109)
  %117 = load ptr, ptr %109, align 8, !tbaa !41
  %118 = getelementptr inbounds nuw i8, ptr %117, i64 48
  %119 = load ptr, ptr %118, align 8
  %120 = tail call noundef signext i8 %119(ptr noundef nonnull align 8 dereferenceable(570) %109, i8 noundef signext 10)
  br label %_ZSt4endlIcSt11char_traitsIcEERSt13basic_ostreamIT_T0_ES6_.exit20

_ZSt4endlIcSt11char_traitsIcEERSt13basic_ostreamIT_T0_ES6_.exit20: ; preds = %113, %116
  %.0.i.i.i19 = phi i8 [ %115, %113 ], [ %120, %116 ]
  %121 = tail call noundef nonnull align 8 dereferenceable(8) ptr @_ZNSo3putEc(ptr noundef nonnull align 8 dereferenceable(8) %103, i8 noundef signext %.0.i.i.i19)
  %122 = tail call noundef nonnull align 8 dereferenceable(8) ptr @_ZNSo5flushEv(ptr noundef nonnull align 8 dereferenceable(8) %121)
  ret void
}